target datalayout = "e-m:e-p270:32:32-p271:32:32-p272:64:64-i64:64-i128:128-f80:128-n8:16:32:64-S128"
target triple = "x86_64-unknown-linux-gnu"

; Function Attrs: mustprogress uwtable
define hidden void @_ZN11th_rewriter16get_param_descrsER12param_descrs(ptr noundef nonnull align 8 dereferenceable(8) %r) #4 align 2 {
entry:
  %r.addr = alloca ptr, align 8
  store ptr %r, ptr %r.addr, align 8
  %0 = load ptr, ptr %r.addr, align 8
  call void @_ZN13bool_rewriter16get_param_descrsER12param_descrs(ptr noundef nonnull align 8 dereferenceable(8) %0)
  %1 = load ptr, ptr %r.addr, align 8
  call void @_ZN14arith_rewriter16get_param_descrsER12param_descrs(ptr noundef nonnull align 8 dereferenceable(8) %1)
  %2 = load ptr, ptr %r.addr, align 8
  call void @_ZN11bv_rewriter16get_param_descrsER12param_descrs(ptr noundef nonnull align 8 dereferenceable(8) %2)
  %3 = load ptr, ptr %r.addr, align 8
  call void @_ZN14array_rewriter16get_param_descrsER12param_descrs(ptr noundef nonnull align 8 dereferenceable(8) %3)
  %4 = load ptr, ptr %r.addr, align 8
  call void @_ZN15rewriter_params20collect_param_descrsER12param_descrs(ptr noundef nonnull align 8 dereferenceable(8) %4)
  ret void
}