; Function Attrs: mustprogress uwtable
define hidden void @_ZN11th_rewriter16get_param_descrsER12param_descrs(ptr noundef nonnull align 8 dereferenceable(8) %r) local_unnamed_addr #3 align 2 {
entry:
  tail call void @_ZN13bool_rewriter16get_param_descrsER12param_descrs(ptr noundef nonnull align 8 dereferenceable(8) %r)
  tail call void @_ZN14arith_rewriter16get_param_descrsER12param_descrs(ptr noundef nonnull align 8 dereferenceable(8) %r)
  tail call void @_ZN11bv_rewriter16get_param_descrsER12param_descrs(ptr noundef nonnull align 8 dereferenceable(8) %r)
  tail call void @_ZN14array_rewriter16get_param_descrsER12param_descrs(ptr noundef nonnull align 8 dereferenceable(8) %r)
  tail call void @_ZN15rewriter_params20collect_param_descrsER12param_descrs(ptr noundef nonnull align 8 dereferenceable(8) %r)
  ret void
}